; Function Attrs: mustprogress uwtable
define hidden void @_ZN19OpenColorIO_v2_4dev12XmlFormatter11writeEndTagERKNSt7__cxx1112basic_stringIcSt11char_traitsIcESaIcEEE(ptr nocapture noundef nonnull readonly align 8 dereferenceable(16) %this, ptr noundef nonnull align 8 dereferenceable(32) %tagName) local_unnamed_addr #3 align 2 {
entry:
  %m_indentLevel.i = getelementptr inbounds i8, ptr %this, i64 8
  %0 = load i32, ptr %m_indentLevel.i, align 8
  %cmp2.i = icmp sgt i32 %0, 0
  br i1 %cmp2.i, label %for.body.i, label %_ZN19OpenColorIO_v2_4dev12XmlFormatter11writeIndentEv.exit

for.body.i:                                       ; preds = %entry, %for.body.i
  %i.03.i = phi i32 [ %inc.i, %for.body.i ], [ 0, %entry ]
  %1 = load ptr, ptr %this, align 8
  %call.i = tail call noundef nonnull align 8 dereferenceable(8) ptr @_ZStlsISt11char_traitsIcEERSt13basic_ostreamIcT_ES5_PKc(ptr noundef nonnull align 8 dereferenceable(8) %1, ptr noundef nonnull @.str.9)
  %inc.i = add nuw nsw i32 %i.03.i, 1
  %2 = load i32, ptr %m_indentLevel.i, align 8
  %cmp.i = icmp slt i32 %inc.i, %2
  br i1 %cmp.i, label %for.body.i, label %_ZN19OpenColorIO_v2_4dev12XmlFormatter11writeIndentEv.exit, !llvm.loop !4

_ZN19OpenColorIO_v2_4dev12XmlFormatter11writeIndentEv.exit: ; preds = %for.body.i, %entry
  %3 = load ptr, ptr %this, align 8
  %call = tail call noundef nonnull align 8 dereferenceable(8) ptr @_ZStlsISt11char_traitsIcEERSt13basic_ostreamIcT_ES5_PKc(ptr noundef nonnull align 8 dereferenceable(8) %3, ptr noundef nonnull @.str.5)
  %call2 = tail call noundef nonnull align 8 dereferenceable(8) ptr @_ZStlsIcSt11char_traitsIcESaIcEERSt13basic_ostreamIT_T0_ES7_RKNSt7__cxx1112basic_stringIS4_S5_T1_EE(ptr noundef nonnull align 8 dereferenceable(8) %call, ptr noundef nonnull align 8 dereferenceable(32) %tagName)
  %call3 = tail call noundef nonnull align 8 dereferenceable(8) ptr @_ZStlsISt11char_traitsIcEERSt13basic_ostreamIcT_ES5_PKc(ptr noundef nonnull align 8 dereferenceable(8) %call2, ptr noundef nonnull @.str.4)
  ret void
}